; Function Attrs: mustprogress uwtable
define noundef i32 @_ZNK6casadi3Dot10sp_reverseEPPyS2_PxS1_(ptr noundef nonnull readonly align 8 captures(none) dereferenceable(64) %0, ptr noundef readonly captures(none) %1, ptr noundef readonly captures(none) %2, ptr readnone captures(none) %3, ptr readnone captures(none) %4) unnamed_addr #3 align 2 {
  %6 = load ptr, ptr %2, align 8, !tbaa !57
  %7 = getelementptr inbounds nuw i8, ptr %0, i64 32
  %8 = getelementptr inbounds nuw i8, ptr %0, i64 40
  %9 = load ptr, ptr %8, align 8, !tbaa !47
  %10 = load ptr, ptr %7, align 8, !tbaa !37
  %.not.i.i.i.not = icmp eq ptr %9, %10
  br i1 %.not.i.i.i.not, label %11, label %_ZNK6casadi6MXNode3depEx.exit

11:                                               ; preds = %5
  tail call void (ptr, ...) @_ZSt24__throw_out_of_range_fmtPKcz(ptr noundef nonnull @.str.15, i64 noundef 0, i64 noundef 0) #21
  unreachable

_ZNK6casadi6MXNode3depEx.exit:                    ; preds = %5
  %12 = getelementptr inbounds nuw i8, ptr %1, i64 8
  %13 = load ptr, ptr %12, align 8, !tbaa !57
  %14 = load ptr, ptr %1, align 8, !tbaa !57
  %15 = tail call noundef nonnull align 8 dereferenceable(8) ptr @_ZNK6casadi2MX8sparsityEv(ptr noundef nonnull align 8 dereferenceable(8) %10)
  %16 = tail call noundef i64 @_ZNK6casadi8Sparsity3nnzEv(ptr noundef nonnull align 8 dereferenceable(8) %15)
  %17 = icmp sgt i64 %16, 0
  br i1 %17, label %.lr.ph, label %._crit_edge

._crit_edge:                                      ; preds = %.lr.ph, %_ZNK6casadi6MXNode3depEx.exit
  store i64 0, ptr %6, align 8, !tbaa !59
  ret i32 0

.lr.ph:                                           ; preds = %_ZNK6casadi6MXNode3depEx.exit, %.lr.ph
  %.015 = phi i64 [ %26, %.lr.ph ], [ 0, %_ZNK6casadi6MXNode3depEx.exit ]
  %.01114 = phi ptr [ %19, %.lr.ph ], [ %14, %_ZNK6casadi6MXNode3depEx.exit ]
  %.01213 = phi ptr [ %23, %.lr.ph ], [ %13, %_ZNK6casadi6MXNode3depEx.exit ]
  %18 = load i64, ptr %6, align 8, !tbaa !59
  %19 = getelementptr inbounds nuw i8, ptr %.01114, i64 8
  %20 = load i64, ptr %.01114, align 8, !tbaa !59
  %21 = or i64 %20, %18
  store i64 %21, ptr %.01114, align 8, !tbaa !59
  %22 = load i64, ptr %6, align 8, !tbaa !59
  %23 = getelementptr inbounds nuw i8, ptr %.01213, i64 8
  %24 = load i64, ptr %.01213, align 8, !tbaa !59
  %25 = or i64 %24, %22
  store i64 %25, ptr %.01213, align 8, !tbaa !59
  %26 = add nuw nsw i64 %.015, 1
  %exitcond.not = icmp eq i64 %26, %16
  br i1 %exitcond.not, label %._crit_edge, label %.lr.ph, !llvm.loop !62
}